; Function Attrs: mustprogress uwtable
define dso_local noundef ptr @_ZN4Luau5Widen5cleanEPKNS_4TypeE(ptr noundef nonnull readonly align 8 captures(none) dereferenceable(480) %0, ptr noundef %1) unnamed_addr #2 align 2 {
  %3 = getelementptr inbounds nuw i8, ptr %0, i64 144
  %4 = load ptr, ptr %3, align 8, !tbaa !51
  %5 = tail call noundef ptr @_ZNK4Luau6TxnLog7pendingEPKNS_4TypeE(ptr noundef nonnull align 8 dereferenceable(128) %4, ptr noundef %1)
  %.not.i = icmp eq ptr %5, null
  br i1 %.not.i, label %8, label %6

6:                                                ; preds = %2
  %7 = tail call noundef ptr @_ZN4Luau9asMutableEPKNS_4TypeE(ptr noundef nonnull %5)
  %.not.i.i.i.i = icmp eq ptr %7, null
  br i1 %.not.i.i.i.i, label %_ZNK4Luau6TxnLog10getMutableINS_13SingletonTypeEPKNS_4TypeEEEPT_T0_.exit.thread, label %_ZN4Luau10getMutableINS_13SingletonTypeEEEPT_PNS_11PendingTypeE.exit.sink.split.i

8:                                                ; preds = %2
  %9 = tail call noundef ptr @_ZN4Luau9asMutableEPKNS_4TypeE(ptr noundef %1)
  %.not.i.i.i = icmp eq ptr %9, null
  br i1 %.not.i.i.i, label %_ZNK4Luau6TxnLog10getMutableINS_13SingletonTypeEPKNS_4TypeEEEPT_T0_.exit.thread, label %_ZN4Luau10getMutableINS_13SingletonTypeEEEPT_PNS_11PendingTypeE.exit.sink.split.i

_ZN4Luau10getMutableINS_13SingletonTypeEEEPT_PNS_11PendingTypeE.exit.sink.split.i: ; preds = %8, %6
  %.sink.i = phi ptr [ %7, %6 ], [ %9, %8 ]
  %10 = load i32, ptr %.sink.i, align 8, !tbaa !84
  %11 = icmp eq i32 %10, 5
  br i1 %11, label %_ZN4Luau6get_ifINS_15StringSingletonEJNS_16BooleanSingletonES1_EEEPKT_PKNS_7VariantIJDpT0_EEE.exit.i, label %_ZNK4Luau6TxnLog10getMutableINS_13SingletonTypeEPKNS_4TypeEEEPT_T0_.exit.thread

_ZN4Luau6get_ifINS_15StringSingletonEJNS_16BooleanSingletonES1_EEEPKT_PKNS_7VariantIJDpT0_EEE.exit.i: ; preds = %_ZN4Luau10getMutableINS_13SingletonTypeEEEPT_PNS_11PendingTypeE.exit.sink.split.i
  %12 = getelementptr inbounds nuw i8, ptr %.sink.i, i64 8
  %13 = load i32, ptr %12, align 8, !tbaa !86
  %14 = icmp eq i32 %13, 1
  br i1 %14, label %_ZN4Luau3getINS_15StringSingletonEEEPKT_PKNS_13SingletonTypeE.exit, label %_ZNK4Luau6TxnLog10getMutableINS_13SingletonTypeEPKNS_4TypeEEEPT_T0_.exit.thread

_ZNK4Luau6TxnLog10getMutableINS_13SingletonTypeEPKNS_4TypeEEEPT_T0_.exit.thread: ; preds = %_ZN4Luau10getMutableINS_13SingletonTypeEEEPT_PNS_11PendingTypeE.exit.sink.split.i, %8, %6, %_ZN4Luau6get_ifINS_15StringSingletonEJNS_16BooleanSingletonES1_EEEPKT_PKNS_7VariantIJDpT0_EEE.exit.i
  br label %_ZN4Luau3getINS_15StringSingletonEEEPKT_PKNS_13SingletonTypeE.exit

_ZN4Luau3getINS_15StringSingletonEEEPKT_PKNS_13SingletonTypeE.exit: ; preds = %_ZN4Luau6get_ifINS_15StringSingletonEJNS_16BooleanSingletonES1_EEEPKT_PKNS_7VariantIJDpT0_EEE.exit.i, %_ZNK4Luau6TxnLog10getMutableINS_13SingletonTypeEPKNS_4TypeEEEPT_T0_.exit.thread
  %.sink11 = phi i64 [ 40, %_ZNK4Luau6TxnLog10getMutableINS_13SingletonTypeEPKNS_4TypeEEEPT_T0_.exit.thread ], [ 32, %_ZN4Luau6get_ifINS_15StringSingletonEJNS_16BooleanSingletonES1_EEEPKT_PKNS_7VariantIJDpT0_EEE.exit.i ]
  %15 = getelementptr inbounds nuw i8, ptr %0, i64 472
  %16 = load ptr, ptr %15, align 8, !tbaa !88
  %17 = getelementptr inbounds nuw i8, ptr %16, i64 %.sink11
  %.0 = load ptr, ptr %17, align 8, !tbaa !45
  ret ptr %.0
}